target datalayout = "e-m:e-p270:32:32-p271:32:32-p272:64:64-i64:64-i128:128-f80:128-n8:16:32:64-S128"
target triple = "x86_64-pc-linux-gnu"

%struct.slurm_conf_t = type { i64, ptr, i16, ptr, ptr, ptr, ptr, ptr, i16, ptr, ptr, ptr, ptr, ptr, ptr, ptr, i16, ptr, ptr, ptr, ptr, i16, ptr, ptr, ptr, i64, ptr, ptr, ptr, ptr, i16, ptr, ptr, i16, i32, ptr, i32, ptr, i32, i32, ptr, ptr, i64, i64, ptr, i16, i16, ptr, i32, i32, ptr, i32, ptr, i32, i16, i16, i16, ptr, i16, i16, ptr, ptr, i32, i16, i16, ptr, i32, i16, ptr, ptr, ptr, ptr, i16, ptr, ptr, ptr, ptr, i32, ptr, ptr, ptr, ptr, i16, i16, ptr, i32, i32, i32, i16, i16, ptr, ptr, i16, ptr, ptr, i32, i32, i32, i32, i32, i64, i32, i32, i16, ptr, ptr, i32, ptr, ptr, ptr, i16, i32, ptr, ptr, i16, ptr, ptr, i32, i16, ptr, ptr, ptr, ptr, i32, i32, i16, i16, i32, ptr, i16, ptr, i32, i32, i32, i32, i32, i32, ptr, i16, ptr, ptr, i32, i16, ptr, i32, i16, i16, ptr, ptr, ptr, i16, ptr, ptr, ptr, ptr, i16, i16, ptr, i16, ptr, i16, ptr, i16, ptr, i16, ptr, ptr, ptr, ptr, i16, ptr, ptr, ptr, i32, ptr, i32, ptr, ptr, i16, ptr, ptr, i32, i16, ptr, ptr, i16, i16, ptr, i16, ptr, ptr, ptr, i32, ptr, i16, i16, ptr, ptr, ptr, ptr, ptr, ptr, ptr, ptr, i16, i32, i16, ptr, ptr, ptr, ptr, i32, ptr, ptr, ptr, i16, ptr, ptr, ptr, i16, ptr, i16, ptr, i16, i16, ptr }
%struct.data_s = type { i32, i32, %union.anon }
%union.anon = type { ptr }

@slurm_conf = external global %struct.slurm_conf_t, align 8
@.str.3 = private unnamed_addr constant [21 x i8] c"DATA: %s: set %pD=%e\00", align 1
@__func__.data_set_float = private unnamed_addr constant [15 x i8] c"data_set_float\00", align 1

; Function Attrs: nounwind uwtable
define internal void @_check_data_list_magic(ptr noundef %0) #0 {
  %2 = alloca ptr, align 8
  store ptr %0, ptr %2, align 8
  ret void
}

; Function Attrs: nounwind uwtable
define internal void @_check_magic(ptr noundef %0) #0 {
  %2 = alloca ptr, align 8
  store ptr %0, ptr %2, align 8
  %3 = load ptr, ptr %2, align 8
  %4 = icmp ne ptr %3, null
  br i1 %4, label %6, label %5

5:                                                ; preds = %1
  br label %29

6:                                                ; preds = %1
  %7 = load i64, ptr getelementptr inbounds nuw (%struct.slurm_conf_t, ptr @slurm_conf, i32 0, i32 42), align 8
  %8 = and i64 %7, 256
  %9 = icmp ne i64 %8, 0
  br i1 %9, label %10, label %29

10:                                               ; preds = %6
  %11 = load ptr, ptr %2, align 8
  %12 = getelementptr inbounds nuw %struct.data_s, ptr %11, i32 0, i32 1
  %13 = load i32, ptr %12, align 4
  %14 = icmp eq i32 %13, 65282
  br i1 %14, label %15, label %19

15:                                               ; preds = %10
  %16 = load ptr, ptr %2, align 8
  %17 = getelementptr inbounds nuw %struct.data_s, ptr %16, i32 0, i32 2
  %18 = load ptr, ptr %17, align 8
  call void @_check_data_list_magic(ptr noundef %18)
  br label %19

19:                                               ; preds = %15, %10
  %20 = load ptr, ptr %2, align 8
  %21 = getelementptr inbounds nuw %struct.data_s, ptr %20, i32 0, i32 1
  %22 = load i32, ptr %21, align 4
  %23 = icmp eq i32 %22, 65283
  br i1 %23, label %24, label %28

24:                                               ; preds = %19
  %25 = load ptr, ptr %2, align 8
  %26 = getelementptr inbounds nuw %struct.data_s, ptr %25, i32 0, i32 2
  %27 = load ptr, ptr %26, align 8
  call void @_check_data_list_magic(ptr noundef %27)
  br label %28

28:                                               ; preds = %24, %19
  br label %29

29:                                               ; preds = %5, %28, %6
  ret void
}

; Function Attrs: nounwind uwtable
define dso_local ptr @data_set_float(ptr noundef %0, double noundef %1) #0 {
  %3 = alloca ptr, align 8
  %4 = alloca ptr, align 8
  %5 = alloca double, align 8
  store ptr %0, ptr %4, align 8
  store double %1, ptr %5, align 8
  %6 = load ptr, ptr %4, align 8
  call void @_check_magic(ptr noundef %6)
  %7 = load ptr, ptr %4, align 8
  %8 = icmp ne ptr %7, null
  br i1 %8, label %10, label %9

9:                                                ; preds = %2
  store ptr null, ptr %3, align 8
  br label %32

10:                                               ; preds = %2
  %11 = load ptr, ptr %4, align 8
  %12 = getelementptr inbounds nuw %struct.data_s, ptr %11, i32 0, i32 1
  store i32 65287, ptr %12, align 4
  %13 = load double, ptr %5, align 8
  %14 = load ptr, ptr %4, align 8
  %15 = getelementptr inbounds nuw %struct.data_s, ptr %14, i32 0, i32 2
  store double %13, ptr %15, align 8
  br label %16

16:                                               ; preds = %10
  %17 = load i64, ptr getelementptr inbounds nuw (%struct.slurm_conf_t, ptr @slurm_conf, i32 0, i32 42), align 8
  %18 = and i64 %17, 256
  %19 = icmp ne i64 %18, 0
  br i1 %19, label %20, label %29

20:                                               ; preds = %16
  br label %21

21:                                               ; preds = %20
  %22 = call i32 @get_log_level()
  %23 = icmp sge i32 %22, 4
  br i1 %23, label %24, label %27

24:                                               ; preds = %21
  %25 = load ptr, ptr %4, align 8
  %26 = load double, ptr %5, align 8
  call void (i32, ptr, ...) @log_var(i32 noundef 4, ptr noundef @.str.3, ptr noundef @__func__.data_set_float, ptr noundef %25, double noundef %26)
  br label %27

27:                                               ; preds = %24, %21
  br label %28

28:                                               ; preds = %27
  br label %29

29:                                               ; preds = %28, %16
  br label %30

30:                                               ; preds = %29
  %31 = load ptr, ptr %4, align 8
  store ptr %31, ptr %3, align 8
  br label %32

32:                                               ; preds = %30, %9
  %33 = load ptr, ptr %3, align 8
  ret ptr %33
}